; Function Attrs: mustprogress nounwind uwtable
define dso_local void @_ZN4llvm17SubtargetFeatures10AddFeatureENS_9StringRefEb(ptr noundef nonnull align 8 dereferenceable(24) %0, ptr %1, i64 %2, i1 noundef zeroext %3) local_unnamed_addr #0 align 2 {
  %5 = alloca %"class.llvm::StringRef", align 8
  %6 = alloca %"class.std::__cxx11::basic_string", align 8
  %7 = alloca %"class.std::__cxx11::basic_string", align 8
  store ptr %1, ptr %5, align 8
  %8 = getelementptr inbounds nuw i8, ptr %5, i64 8
  store i64 %2, ptr %8, align 8
  %9 = icmp eq i64 %2, 0
  br i1 %9, label %25, label %10

10:                                               ; preds = %4
  %11 = load i8, ptr %1, align 1
  switch i8 %11, label %13 [
    i8 45, label %12
    i8 43, label %12
  ]

12:                                               ; preds = %10, %10
  call void @_ZNK4llvm9StringRef5lowerB5cxx11Ev(ptr dead_on_unwind nonnull writable sret(%"class.std::__cxx11::basic_string") align 8 %6, ptr noundef nonnull align 8 dereferenceable(16) %5) #11
  br label %15

13:                                               ; preds = %10
  %.str..str.1 = select i1 %3, ptr @.str, ptr @.str.1
  call void @_ZNK4llvm9StringRef5lowerB5cxx11Ev(ptr dead_on_unwind nonnull writable sret(%"class.std::__cxx11::basic_string") align 8 %7, ptr noundef nonnull align 8 dereferenceable(16) %5) #11
  %14 = call noundef nonnull align 8 dereferenceable(32) ptr @_ZNSt7__cxx1112basic_stringIcSt11char_traitsIcESaIcEE6insertEmPKc(ptr noundef nonnull align 8 dereferenceable(32) %7, i64 noundef 0, ptr noundef nonnull %.str..str.1) #11, !noalias !6
  call void @_ZNSt7__cxx1112basic_stringIcSt11char_traitsIcESaIcEEC1EOS4_(ptr noundef nonnull align 8 dereferenceable(32) %6, ptr noundef nonnull align 8 dereferenceable(32) %14) #11
  br label %15

15:                                               ; preds = %13, %12
  %16 = getelementptr inbounds nuw i8, ptr %0, i64 8
  %17 = load ptr, ptr %16, align 8
  %18 = getelementptr inbounds nuw i8, ptr %0, i64 16
  %19 = load ptr, ptr %18, align 8
  %.not.i.i = icmp eq ptr %17, %19
  br i1 %.not.i.i, label %23, label %20

20:                                               ; preds = %15
  call void @_ZNSt7__cxx1112basic_stringIcSt11char_traitsIcESaIcEEC1EOS4_(ptr noundef nonnull align 8 dereferenceable(32) %17, ptr noundef nonnull align 8 dereferenceable(32) %6) #11
  %21 = load ptr, ptr %16, align 8
  %22 = getelementptr inbounds nuw i8, ptr %21, i64 32
  store ptr %22, ptr %16, align 8
  br label %_ZNSt6vectorINSt7__cxx1112basic_stringIcSt11char_traitsIcESaIcEEESaIS5_EE9push_backEOS5_.exit

23:                                               ; preds = %15
  call void @_ZNSt6vectorINSt7__cxx1112basic_stringIcSt11char_traitsIcESaIcEEESaIS5_EE17_M_realloc_insertIJS5_EEEvN9__gnu_cxx17__normal_iteratorIPS5_S7_EEDpOT_(ptr noundef nonnull align 8 dereferenceable(24) %0, ptr %17, ptr noundef nonnull align 8 dereferenceable(32) %6)
  br label %_ZNSt6vectorINSt7__cxx1112basic_stringIcSt11char_traitsIcESaIcEEESaIS5_EE9push_backEOS5_.exit

_ZNSt6vectorINSt7__cxx1112basic_stringIcSt11char_traitsIcESaIcEEESaIS5_EE9push_backEOS5_.exit: ; preds = %20, %23
  call void @_ZNSt7__cxx1112basic_stringIcSt11char_traitsIcESaIcEED1Ev(ptr noundef nonnull align 8 dereferenceable(32) %6) #11
  switch i8 %11, label %24 [
    i8 45, label %25
    i8 43, label %25
  ]

24:                                               ; preds = %_ZNSt6vectorINSt7__cxx1112basic_stringIcSt11char_traitsIcESaIcEEESaIS5_EE9push_backEOS5_.exit
  call void @_ZNSt7__cxx1112basic_stringIcSt11char_traitsIcESaIcEED1Ev(ptr noundef nonnull align 8 dereferenceable(32) %7) #11
  br label %25

25:                                               ; preds = %_ZNSt6vectorINSt7__cxx1112basic_stringIcSt11char_traitsIcESaIcEEESaIS5_EE9push_backEOS5_.exit, %_ZNSt6vectorINSt7__cxx1112basic_stringIcSt11char_traitsIcESaIcEEESaIS5_EE9push_backEOS5_.exit, %24, %4
  ret void
}